target datalayout = "e-m:e-p270:32:32-p271:32:32-p272:64:64-i64:64-i128:128-f80:128-n8:16:32:64-S128"
target triple = "x86_64-pc-linux-gnu"

%struct.Vec_Int_t_ = type { i32, i32, ptr }
%struct.Vec_Wec_t_ = type { i32, i32, ptr }

@.str.1 = private unnamed_addr constant [37 x i8] c"Output signature with %d monomials:\0A\00", align 1
@.str.2 = private unnamed_addr constant [9 x i8] c"  %s2^%d\00", align 1
@.str.3 = private unnamed_addr constant [2 x i8] c"+\00", align 1
@.str.4 = private unnamed_addr constant [2 x i8] c"-\00", align 1
@.str.5 = private unnamed_addr constant [4 x i8] c" * \00", align 1
@.str.6 = private unnamed_addr constant [4 x i8] c"i%d\00", align 1
@.str.7 = private unnamed_addr constant [4 x i8] c"o%d\00", align 1
@.str.8 = private unnamed_addr constant [2 x i8] c"\0A\00", align 1

; Function Attrs: nounwind uwtable
define internal i32 @Vec_IntEntry(ptr noundef %0, i32 noundef %1) #0 {
  %3 = alloca ptr, align 8
  %4 = alloca i32, align 4
  store ptr %0, ptr %3, align 8
  store i32 %1, ptr %4, align 4
  %5 = load ptr, ptr %3, align 8
  %6 = getelementptr inbounds %struct.Vec_Int_t_, ptr %5, i32 0, i32 2
  %7 = load ptr, ptr %6, align 8
  %8 = load i32, ptr %4, align 4
  %9 = sext i32 %8 to i64
  %10 = getelementptr inbounds i32, ptr %7, i64 %9
  %11 = load i32, ptr %10, align 4
  ret i32 %11
}

; Function Attrs: nounwind uwtable
define internal i32 @Vec_IntSize(ptr noundef %0) #0 {
  %2 = alloca ptr, align 8
  store ptr %0, ptr %2, align 8
  %3 = load ptr, ptr %2, align 8
  %4 = getelementptr inbounds %struct.Vec_Int_t_, ptr %3, i32 0, i32 1
  %5 = load i32, ptr %4, align 4
  ret i32 %5
}

; Function Attrs: nounwind uwtable
define internal i32 @Abc_AbsInt(i32 noundef %0) #0 {
  %2 = alloca i32, align 4
  store i32 %0, ptr %2, align 4
  %3 = load i32, ptr %2, align 4
  %4 = icmp slt i32 %3, 0
  br i1 %4, label %5, label %8

5:                                                ; preds = %1
  %6 = load i32, ptr %2, align 4
  %7 = sub nsw i32 0, %6
  br label %10

8:                                                ; preds = %1
  %9 = load i32, ptr %2, align 4
  br label %10

10:                                               ; preds = %8, %5
  %11 = phi i32 [ %7, %5 ], [ %9, %8 ]
  ret i32 %11
}

; Function Attrs: nounwind uwtable
define internal i32 @Vec_IntEntryLast(ptr noundef %0) #0 {
  %2 = alloca ptr, align 8
  store ptr %0, ptr %2, align 8
  %3 = load ptr, ptr %2, align 8
  %4 = getelementptr inbounds %struct.Vec_Int_t_, ptr %3, i32 0, i32 2
  %5 = load ptr, ptr %4, align 8
  %6 = load ptr, ptr %2, align 8
  %7 = getelementptr inbounds %struct.Vec_Int_t_, ptr %6, i32 0, i32 1
  %8 = load i32, ptr %7, align 4
  %9 = sub nsw i32 %8, 1
  %10 = sext i32 %9 to i64
  %11 = getelementptr inbounds i32, ptr %5, i64 %10
  %12 = load i32, ptr %11, align 4
  ret i32 %12
}

; Function Attrs: nounwind uwtable
define internal ptr @Vec_WecEntry(ptr noundef %0, i32 noundef %1) #0 {
  %3 = alloca ptr, align 8
  %4 = alloca i32, align 4
  store ptr %0, ptr %3, align 8
  store i32 %1, ptr %4, align 4
  %5 = load ptr, ptr %3, align 8
  %6 = getelementptr inbounds %struct.Vec_Wec_t_, ptr %5, i32 0, i32 2
  %7 = load ptr, ptr %6, align 8
  %8 = load i32, ptr %4, align 4
  %9 = sext i32 %8 to i64
  %10 = getelementptr inbounds %struct.Vec_Int_t_, ptr %7, i64 %9
  ret ptr %10
}

; Function Attrs: nounwind uwtable
define internal i32 @Vec_WecSize(ptr noundef %0) #0 {
  %2 = alloca ptr, align 8
  store ptr %0, ptr %2, align 8
  %3 = load ptr, ptr %2, align 8
  %4 = getelementptr inbounds %struct.Vec_Wec_t_, ptr %3, i32 0, i32 1
  %5 = load i32, ptr %4, align 4
  ret i32 %5
}

; Function Attrs: nounwind uwtable
define void @Acec_PrintSignature(ptr noundef %0) #0 {
  %2 = alloca ptr, align 8
  %3 = alloca ptr, align 8
  %4 = alloca i32, align 4
  %5 = alloca i32, align 4
  %6 = alloca i32, align 4
  store ptr %0, ptr %2, align 8
  %7 = load ptr, ptr %2, align 8
  %8 = call i32 @Vec_WecSize(ptr noundef %7)
  %9 = call i32 (ptr, ...) @printf(ptr noundef @.str.1, i32 noundef %8)
  store i32 0, ptr %4, align 4
  br label %10

10:                                               ; preds = %61, %1
  %11 = load i32, ptr %4, align 4
  %12 = load ptr, ptr %2, align 8
  %13 = call i32 @Vec_WecSize(ptr noundef %12)
  %14 = icmp slt i32 %11, %13
  br i1 %14, label %15, label %19

15:                                               ; preds = %10
  %16 = load ptr, ptr %2, align 8
  %17 = load i32, ptr %4, align 4
  %18 = call ptr @Vec_WecEntry(ptr noundef %16, i32 noundef %17)
  store ptr %18, ptr %3, align 8
  br label %19

19:                                               ; preds = %15, %10
  %20 = phi i1 [ false, %10 ], [ true, %15 ]
  br i1 %20, label %21, label %64

21:                                               ; preds = %19
  %22 = load ptr, ptr %3, align 8
  %23 = call i32 @Vec_IntEntryLast(ptr noundef %22)
  %24 = icmp sgt i32 %23, 0
  %25 = select i1 %24, ptr @.str.3, ptr @.str.4
  %26 = load ptr, ptr %3, align 8
  %27 = call i32 @Vec_IntEntryLast(ptr noundef %26)
  %28 = call i32 @Abc_AbsInt(i32 noundef %27)
  %29 = sub nsw i32 %28, 1
  %30 = call i32 (ptr, ...) @printf(ptr noundef @.str.2, ptr noundef %25, i32 noundef %29)
  store i32 0, ptr %5, align 4
  br label %31

31:                                               ; preds = %56, %21
  %32 = load i32, ptr %5, align 4
  %33 = load ptr, ptr %3, align 8
  %34 = call i32 @Vec_IntSize(ptr noundef %33)
  %35 = sub nsw i32 %34, 1
  %36 = icmp slt i32 %32, %35
  br i1 %36, label %37, label %41

37:                                               ; preds = %31
  %38 = load ptr, ptr %3, align 8
  %39 = load i32, ptr %5, align 4
  %40 = call i32 @Vec_IntEntry(ptr noundef %38, i32 noundef %39)
  store i32 %40, ptr %6, align 4
  br label %41

41:                                               ; preds = %37, %31
  %42 = phi i1 [ false, %31 ], [ true, %37 ]
  br i1 %42, label %43, label %59

43:                                               ; preds = %41
  %44 = call i32 (ptr, ...) @printf(ptr noundef @.str.5)
  %45 = load i32, ptr %6, align 4
  %46 = icmp slt i32 %45, 0
  br i1 %46, label %47, label %52

47:                                               ; preds = %43
  %48 = load i32, ptr %6, align 4
  %49 = sub nsw i32 0, %48
  %50 = sub nsw i32 %49, 1
  %51 = call i32 (ptr, ...) @printf(ptr noundef @.str.6, i32 noundef %50)
  br label %55

52:                                               ; preds = %43
  %53 = load i32, ptr %6, align 4
  %54 = call i32 (ptr, ...) @printf(ptr noundef @.str.7, i32 noundef %53)
  br label %55

55:                                               ; preds = %52, %47
  br label %56

56:                                               ; preds = %55
  %57 = load i32, ptr %5, align 4
  %58 = add nsw i32 %57, 1
  store i32 %58, ptr %5, align 4
  br label %31, !llvm.loop !15

59:                                               ; preds = %41
  %60 = call i32 (ptr, ...) @printf(ptr noundef @.str.8)
  br label %61

61:                                               ; preds = %59
  %62 = load i32, ptr %4, align 4
  %63 = add nsw i32 %62, 1
  store i32 %63, ptr %4, align 4
  br label %10, !llvm.loop !16

64:                                               ; preds = %19
  ret void
}