; Function Attrs: nofree nounwind uwtable
define void @Acec_PrintSignature(ptr noundef readonly captures(none) %0) local_unnamed_addr #7 {
  %2 = getelementptr i8, ptr %0, i64 4
  %.val19 = load i32, ptr %2, align 4
  %3 = tail call i32 (ptr, ...) @printf(ptr noundef nonnull dereferenceable(1) @.str.1, i32 noundef %.val19)
  %.val29 = load i32, ptr %2, align 4
  %4 = icmp sgt i32 %.val29, 0
  br i1 %4, label %.lr.ph31, label %.critedge

.lr.ph31:                                         ; preds = %1
  %5 = getelementptr i8, ptr %0, i64 8
  br label %6

6:                                                ; preds = %.lr.ph31, %.critedge2
  %indvars.iv33 = phi i64 [ 0, %.lr.ph31 ], [ %indvars.iv.next34, %.critedge2 ]
  %.val20 = load ptr, ptr %5, align 8
  %7 = getelementptr inbounds nuw %struct.Vec_Int_t_, ptr %.val20, i64 %indvars.iv33
  %8 = getelementptr i8, ptr %7, i64 4
  %.val25 = load i32, ptr %8, align 4
  %9 = getelementptr i8, ptr %7, i64 8
  %.val26 = load ptr, ptr %9, align 8
  %10 = sext i32 %.val25 to i64
  %11 = getelementptr i32, ptr %.val26, i64 %10
  %12 = getelementptr i8, ptr %11, i64 -4
  %13 = load i32, ptr %12, align 4
  %14 = icmp sgt i32 %13, 0
  %15 = select i1 %14, ptr @.str.3, ptr @.str.4
  %16 = tail call range(i32 0, -2147483648) i32 @llvm.abs.i32(i32 %13, i1 true)
  %17 = add nsw i32 %16, -1
  %18 = tail call i32 (ptr, ...) @printf(ptr noundef nonnull dereferenceable(1) @.str.2, ptr noundef nonnull %15, i32 noundef %17)
  %.val2127 = load i32, ptr %8, align 4
  %19 = icmp sgt i32 %.val2127, 1
  br i1 %19, label %.lr.ph, label %.critedge2

.lr.ph:                                           ; preds = %6, %29
  %indvars.iv = phi i64 [ %indvars.iv.next, %29 ], [ 0, %6 ]
  %.val22 = load ptr, ptr %9, align 8
  %20 = getelementptr inbounds nuw i32, ptr %.val22, i64 %indvars.iv
  %21 = load i32, ptr %20, align 4
  %22 = tail call i32 (ptr, ...) @printf(ptr noundef nonnull dereferenceable(1) @.str.5)
  %23 = icmp slt i32 %21, 0
  br i1 %23, label %24, label %27

24:                                               ; preds = %.lr.ph
  %25 = xor i32 %21, -1
  %26 = tail call i32 (ptr, ...) @printf(ptr noundef nonnull dereferenceable(1) @.str.6, i32 noundef %25)
  br label %29

27:                                               ; preds = %.lr.ph
  %28 = tail call i32 (ptr, ...) @printf(ptr noundef nonnull dereferenceable(1) @.str.7, i32 noundef %21)
  br label %29

29:                                               ; preds = %24, %27
  %indvars.iv.next = add nuw nsw i64 %indvars.iv, 1
  %.val21 = load i32, ptr %8, align 4
  %30 = add nsw i32 %.val21, -1
  %31 = sext i32 %30 to i64
  %32 = icmp slt i64 %indvars.iv.next, %31
  br i1 %32, label %.lr.ph, label %.critedge2, !llvm.loop !17

.critedge2:                                       ; preds = %29, %6
  %putchar = tail call i32 @putchar(i32 10)
  %indvars.iv.next34 = add nuw nsw i64 %indvars.iv33, 1
  %.val = load i32, ptr %2, align 4
  %33 = sext i32 %.val to i64
  %34 = icmp slt i64 %indvars.iv.next34, %33
  br i1 %34, label %6, label %.critedge, !llvm.loop !18

.critedge:                                        ; preds = %.critedge2, %1
  ret void
}